target datalayout = "e-m:e-p270:32:32-p271:32:32-p272:64:64-i64:64-i128:128-f80:128-n8:16:32:64-S128"
target triple = "x86_64-pc-linux-gnu"

%struct.ImGuiTableSettings = type <{ i32, i32, float, i16, i16, i8, [3 x i8] }>
%struct.ImGuiTableColumnSettings = type <{ float, i32, i16, i16, i16, i8, i8 }>

@.str.47 = private unnamed_addr constant [12 x i8] c"RefScale=%f\00", align 1
@.str.48 = private unnamed_addr constant [12 x i8] c"Column %d%n\00", align 1
@.str.49 = private unnamed_addr constant [16 x i8] c"UserID=0x%08X%n\00", align 1
@.str.50 = private unnamed_addr constant [11 x i8] c"Width=%d%n\00", align 1
@.str.51 = private unnamed_addr constant [12 x i8] c"Weight=%f%n\00", align 1
@.str.52 = private unnamed_addr constant [13 x i8] c"Visible=%d%n\00", align 1
@.str.53 = private unnamed_addr constant [11 x i8] c"Order=%d%n\00", align 1
@.str.54 = private unnamed_addr constant [12 x i8] c"Sort=%d%c%n\00", align 1

; Function Attrs: mustprogress nounwind uwtable
define linkonce_odr noundef ptr @_ZN18ImGuiTableSettings17GetColumnSettingsEv(ptr noundef nonnull align 4 dereferenceable(17) %0) #7 comdat align 2 {
  %2 = alloca ptr, align 8
  store ptr %0, ptr %2, align 8, !tbaa !367
  %3 = load ptr, ptr %2, align 8
  %4 = getelementptr inbounds %struct.ImGuiTableSettings, ptr %3, i64 1
  ret ptr %4
}

; Function Attrs: mustprogress uwtable
define internal void @_ZL29TableSettingsHandler_ReadLineP12ImGuiContextP20ImGuiSettingsHandlerPvPKc(ptr noundef %0, ptr noundef %1, ptr noundef %2, ptr noundef %3) #0 {
  %5 = alloca ptr, align 8
  %6 = alloca ptr, align 8
  %7 = alloca ptr, align 8
  %8 = alloca ptr, align 8
  %9 = alloca ptr, align 8
  %10 = alloca float, align 4
  %11 = alloca i32, align 4
  %12 = alloca i32, align 4
  %13 = alloca i32, align 4
  %14 = alloca i32, align 4
  %15 = alloca i8, align 1
  %16 = alloca ptr, align 8
  store ptr %0, ptr %5, align 8, !tbaa !7
  store ptr %1, ptr %6, align 8, !tbaa !667
  store ptr %2, ptr %7, align 8, !tbaa !266
  store ptr %3, ptr %8, align 8, !tbaa !12
  call void @llvm.lifetime.start.p0(i64 8, ptr %9) #8
  %17 = load ptr, ptr %7, align 8, !tbaa !266
  store ptr %17, ptr %9, align 8, !tbaa !367
  call void @llvm.lifetime.start.p0(i64 4, ptr %10) #8
  store float 0.000000e+00, ptr %10, align 4, !tbaa !16
  call void @llvm.lifetime.start.p0(i64 4, ptr %11) #8
  store i32 0, ptr %11, align 4, !tbaa !3
  call void @llvm.lifetime.start.p0(i64 4, ptr %12) #8
  store i32 0, ptr %12, align 4, !tbaa !3
  call void @llvm.lifetime.start.p0(i64 4, ptr %13) #8
  store i32 0, ptr %13, align 4, !tbaa !3
  %18 = load ptr, ptr %8, align 8, !tbaa !12
  %19 = call i32 (ptr, ptr, ...) @__isoc99_sscanf(ptr noundef %18, ptr noundef @.str.47, ptr noundef %10) #8
  %20 = icmp eq i32 %19, 1
  br i1 %20, label %21, label %25

21:                                               ; preds = %4
  %22 = load float, ptr %10, align 4, !tbaa !16
  %23 = load ptr, ptr %9, align 8, !tbaa !367
  %24 = getelementptr inbounds nuw %struct.ImGuiTableSettings, ptr %23, i32 0, i32 2
  store float %22, ptr %24, align 4, !tbaa !372
  store i32 1, ptr %14, align 4
  br label %183

25:                                               ; preds = %4
  %26 = load ptr, ptr %8, align 8, !tbaa !12
  %27 = call i32 (ptr, ptr, ...) @__isoc99_sscanf(ptr noundef %26, ptr noundef @.str.48, ptr noundef %11, ptr noundef %12) #8
  %28 = icmp eq i32 %27, 1
  br i1 %28, label %29, label %182

29:                                               ; preds = %25
  %30 = load i32, ptr %11, align 4, !tbaa !3
  %31 = icmp slt i32 %30, 0
  br i1 %31, label %39, label %32

32:                                               ; preds = %29
  %33 = load i32, ptr %11, align 4, !tbaa !3
  %34 = load ptr, ptr %9, align 8, !tbaa !367
  %35 = getelementptr inbounds nuw %struct.ImGuiTableSettings, ptr %34, i32 0, i32 3
  %36 = load i16, ptr %35, align 4, !tbaa !369
  %37 = sext i16 %36 to i32
  %38 = icmp sge i32 %33, %37
  br i1 %38, label %39, label %40

39:                                               ; preds = %32, %29
  store i32 1, ptr %14, align 4
  br label %183

40:                                               ; preds = %32
  %41 = load ptr, ptr %8, align 8, !tbaa !12
  %42 = load i32, ptr %12, align 4, !tbaa !3
  %43 = sext i32 %42 to i64
  %44 = getelementptr inbounds i8, ptr %41, i64 %43
  %45 = call noundef ptr @_Z14ImStrSkipBlankPKc(ptr noundef %44)
  store ptr %45, ptr %8, align 8, !tbaa !12
  call void @llvm.lifetime.start.p0(i64 1, ptr %15) #8
  store i8 0, ptr %15, align 1, !tbaa !285
  call void @llvm.lifetime.start.p0(i64 8, ptr %16) #8
  %46 = load ptr, ptr %9, align 8, !tbaa !367
  %47 = call noundef ptr @_ZN18ImGuiTableSettings17GetColumnSettingsEv(ptr noundef nonnull align 4 dereferenceable(17) %46)
  %48 = load i32, ptr %11, align 4, !tbaa !3
  %49 = sext i32 %48 to i64
  %50 = getelementptr inbounds %struct.ImGuiTableColumnSettings, ptr %47, i64 %49
  store ptr %50, ptr %16, align 8, !tbaa !375
  %51 = load i32, ptr %11, align 4, !tbaa !3
  %52 = trunc i32 %51 to i16
  %53 = load ptr, ptr %16, align 8, !tbaa !375
  %54 = getelementptr inbounds nuw %struct.ImGuiTableColumnSettings, ptr %53, i32 0, i32 2
  store i16 %52, ptr %54, align 4, !tbaa !378
  %55 = load ptr, ptr %8, align 8, !tbaa !12
  %56 = call i32 (ptr, ptr, ...) @__isoc99_sscanf(ptr noundef %55, ptr noundef @.str.49, ptr noundef %13, ptr noundef %12) #8
  %57 = icmp eq i32 %56, 1
  br i1 %57, label %58, label %67

58:                                               ; preds = %40
  %59 = load ptr, ptr %8, align 8, !tbaa !12
  %60 = load i32, ptr %12, align 4, !tbaa !3
  %61 = sext i32 %60 to i64
  %62 = getelementptr inbounds i8, ptr %59, i64 %61
  %63 = call noundef ptr @_Z14ImStrSkipBlankPKc(ptr noundef %62)
  store ptr %63, ptr %8, align 8, !tbaa !12
  %64 = load i32, ptr %13, align 4, !tbaa !3
  %65 = load ptr, ptr %16, align 8, !tbaa !375
  %66 = getelementptr inbounds nuw %struct.ImGuiTableColumnSettings, ptr %65, i32 0, i32 1
  store i32 %64, ptr %66, align 4, !tbaa !669
  br label %67

67:                                               ; preds = %58, %40
  %68 = load ptr, ptr %8, align 8, !tbaa !12
  %69 = call i32 (ptr, ptr, ...) @__isoc99_sscanf(ptr noundef %68, ptr noundef @.str.50, ptr noundef %13, ptr noundef %12) #8
  %70 = icmp eq i32 %69, 1
  br i1 %70, label %71, label %90

71:                                               ; preds = %67
  %72 = load ptr, ptr %8, align 8, !tbaa !12
  %73 = load i32, ptr %12, align 4, !tbaa !3
  %74 = sext i32 %73 to i64
  %75 = getelementptr inbounds i8, ptr %72, i64 %74
  %76 = call noundef ptr @_Z14ImStrSkipBlankPKc(ptr noundef %75)
  store ptr %76, ptr %8, align 8, !tbaa !12
  %77 = load i32, ptr %13, align 4, !tbaa !3
  %78 = sitofp i32 %77 to float
  %79 = load ptr, ptr %16, align 8, !tbaa !375
  %80 = getelementptr inbounds nuw %struct.ImGuiTableColumnSettings, ptr %79, i32 0, i32 0
  store float %78, ptr %80, align 4, !tbaa !380
  %81 = load ptr, ptr %16, align 8, !tbaa !375
  %82 = getelementptr inbounds nuw %struct.ImGuiTableColumnSettings, ptr %81, i32 0, i32 5
  %83 = load i8, ptr %82, align 2
  %84 = and i8 %83, -17
  %85 = or i8 %84, 0
  store i8 %85, ptr %82, align 2
  %86 = load ptr, ptr %9, align 8, !tbaa !367
  %87 = getelementptr inbounds nuw %struct.ImGuiTableSettings, ptr %86, i32 0, i32 1
  %88 = load i32, ptr %87, align 4, !tbaa !371
  %89 = or i32 %88, 1
  store i32 %89, ptr %87, align 4, !tbaa !371
  br label %90

90:                                               ; preds = %71, %67
  %91 = load ptr, ptr %8, align 8, !tbaa !12
  %92 = call i32 (ptr, ptr, ...) @__isoc99_sscanf(ptr noundef %91, ptr noundef @.str.51, ptr noundef %10, ptr noundef %12) #8
  %93 = icmp eq i32 %92, 1
  br i1 %93, label %94, label %112

94:                                               ; preds = %90
  %95 = load ptr, ptr %8, align 8, !tbaa !12
  %96 = load i32, ptr %12, align 4, !tbaa !3
  %97 = sext i32 %96 to i64
  %98 = getelementptr inbounds i8, ptr %95, i64 %97
  %99 = call noundef ptr @_Z14ImStrSkipBlankPKc(ptr noundef %98)
  store ptr %99, ptr %8, align 8, !tbaa !12
  %100 = load float, ptr %10, align 4, !tbaa !16
  %101 = load ptr, ptr %16, align 8, !tbaa !375
  %102 = getelementptr inbounds nuw %struct.ImGuiTableColumnSettings, ptr %101, i32 0, i32 0
  store float %100, ptr %102, align 4, !tbaa !380
  %103 = load ptr, ptr %16, align 8, !tbaa !375
  %104 = getelementptr inbounds nuw %struct.ImGuiTableColumnSettings, ptr %103, i32 0, i32 5
  %105 = load i8, ptr %104, align 2
  %106 = and i8 %105, -17
  %107 = or i8 %106, 16
  store i8 %107, ptr %104, align 2
  %108 = load ptr, ptr %9, align 8, !tbaa !367
  %109 = getelementptr inbounds nuw %struct.ImGuiTableSettings, ptr %108, i32 0, i32 1
  %110 = load i32, ptr %109, align 4, !tbaa !371
  %111 = or i32 %110, 1
  store i32 %111, ptr %109, align 4, !tbaa !371
  br label %112

112:                                              ; preds = %94, %90
  %113 = load ptr, ptr %8, align 8, !tbaa !12
  %114 = call i32 (ptr, ptr, ...) @__isoc99_sscanf(ptr noundef %113, ptr noundef @.str.52, ptr noundef %13, ptr noundef %12) #8
  %115 = icmp eq i32 %114, 1
  br i1 %115, label %116, label %135

116:                                              ; preds = %112
  %117 = load ptr, ptr %8, align 8, !tbaa !12
  %118 = load i32, ptr %12, align 4, !tbaa !3
  %119 = sext i32 %118 to i64
  %120 = getelementptr inbounds i8, ptr %117, i64 %119
  %121 = call noundef ptr @_Z14ImStrSkipBlankPKc(ptr noundef %120)
  store ptr %121, ptr %8, align 8, !tbaa !12
  %122 = load i32, ptr %13, align 4, !tbaa !3
  %123 = trunc i32 %122 to i8
  %124 = load ptr, ptr %16, align 8, !tbaa !375
  %125 = getelementptr inbounds nuw %struct.ImGuiTableColumnSettings, ptr %124, i32 0, i32 5
  %126 = load i8, ptr %125, align 2
  %127 = and i8 %123, 3
  %128 = shl i8 %127, 2
  %129 = and i8 %126, -13
  %130 = or i8 %129, %128
  store i8 %130, ptr %125, align 2
  %131 = load ptr, ptr %9, align 8, !tbaa !367
  %132 = getelementptr inbounds nuw %struct.ImGuiTableSettings, ptr %131, i32 0, i32 1
  %133 = load i32, ptr %132, align 4, !tbaa !371
  %134 = or i32 %133, 4
  store i32 %134, ptr %132, align 4, !tbaa !371
  br label %135

135:                                              ; preds = %116, %112
  %136 = load ptr, ptr %8, align 8, !tbaa !12
  %137 = call i32 (ptr, ptr, ...) @__isoc99_sscanf(ptr noundef %136, ptr noundef @.str.53, ptr noundef %13, ptr noundef %12) #8
  %138 = icmp eq i32 %137, 1
  br i1 %138, label %139, label %153

139:                                              ; preds = %135
  %140 = load ptr, ptr %8, align 8, !tbaa !12
  %141 = load i32, ptr %12, align 4, !tbaa !3
  %142 = sext i32 %141 to i64
  %143 = getelementptr inbounds i8, ptr %140, i64 %142
  %144 = call noundef ptr @_Z14ImStrSkipBlankPKc(ptr noundef %143)
  store ptr %144, ptr %8, align 8, !tbaa !12
  %145 = load i32, ptr %13, align 4, !tbaa !3
  %146 = trunc i32 %145 to i16
  %147 = load ptr, ptr %16, align 8, !tbaa !375
  %148 = getelementptr inbounds nuw %struct.ImGuiTableColumnSettings, ptr %147, i32 0, i32 3
  store i16 %146, ptr %148, align 2, !tbaa !381
  %149 = load ptr, ptr %9, align 8, !tbaa !367
  %150 = getelementptr inbounds nuw %struct.ImGuiTableSettings, ptr %149, i32 0, i32 1
  %151 = load i32, ptr %150, align 4, !tbaa !371
  %152 = or i32 %151, 2
  store i32 %152, ptr %150, align 4, !tbaa !371
  br label %153

153:                                              ; preds = %139, %135
  %154 = load ptr, ptr %8, align 8, !tbaa !12
  %155 = call i32 (ptr, ptr, ...) @__isoc99_sscanf(ptr noundef %154, ptr noundef @.str.54, ptr noundef %13, ptr noundef %15, ptr noundef %12) #8
  %156 = icmp eq i32 %155, 2
  br i1 %156, label %157, label %181

157:                                              ; preds = %153
  %158 = load ptr, ptr %8, align 8, !tbaa !12
  %159 = load i32, ptr %12, align 4, !tbaa !3
  %160 = sext i32 %159 to i64
  %161 = getelementptr inbounds i8, ptr %158, i64 %160
  %162 = call noundef ptr @_Z14ImStrSkipBlankPKc(ptr noundef %161)
  store ptr %162, ptr %8, align 8, !tbaa !12
  %163 = load i32, ptr %13, align 4, !tbaa !3
  %164 = trunc i32 %163 to i16
  %165 = load ptr, ptr %16, align 8, !tbaa !375
  %166 = getelementptr inbounds nuw %struct.ImGuiTableColumnSettings, ptr %165, i32 0, i32 4
  store i16 %164, ptr %166, align 4, !tbaa !382
  %167 = load i8, ptr %15, align 1, !tbaa !285
  %168 = sext i8 %167 to i32
  %169 = icmp eq i32 %168, 94
  %170 = select i1 %169, i8 2, i8 1
  %171 = load ptr, ptr %16, align 8, !tbaa !375
  %172 = getelementptr inbounds nuw %struct.ImGuiTableColumnSettings, ptr %171, i32 0, i32 5
  %173 = load i8, ptr %172, align 2
  %174 = and i8 %170, 3
  %175 = and i8 %173, -4
  %176 = or i8 %175, %174
  store i8 %176, ptr %172, align 2
  %177 = load ptr, ptr %9, align 8, !tbaa !367
  %178 = getelementptr inbounds nuw %struct.ImGuiTableSettings, ptr %177, i32 0, i32 1
  %179 = load i32, ptr %178, align 4, !tbaa !371
  %180 = or i32 %179, 8
  store i32 %180, ptr %178, align 4, !tbaa !371
  br label %181

181:                                              ; preds = %157, %153
  call void @llvm.lifetime.end.p0(i64 8, ptr %16) #8
  call void @llvm.lifetime.end.p0(i64 1, ptr %15) #8
  br label %182

182:                                              ; preds = %181, %25
  store i32 0, ptr %14, align 4
  br label %183

183:                                              ; preds = %182, %39, %21
  call void @llvm.lifetime.end.p0(i64 4, ptr %13) #8
  call void @llvm.lifetime.end.p0(i64 4, ptr %12) #8
  call void @llvm.lifetime.end.p0(i64 4, ptr %11) #8
  call void @llvm.lifetime.end.p0(i64 4, ptr %10) #8
  call void @llvm.lifetime.end.p0(i64 8, ptr %9) #8
  %184 = load i32, ptr %14, align 4
  switch i32 %184, label %186 [
    i32 0, label %185
    i32 1, label %185
  ]

185:                                              ; preds = %183, %183
  ret void

186:                                              ; preds = %183
  unreachable
}