; Function Attrs: mustprogress uwtable
define internal void @_ZL29TableSettingsHandler_ReadLineP12ImGuiContextP20ImGuiSettingsHandlerPvPKc(ptr readnone captures(none) %0, ptr readnone captures(none) %1, ptr noundef captures(none) %2, ptr noundef %3) #0 {
  %5 = alloca float, align 4
  %6 = alloca i32, align 4
  %7 = alloca i32, align 4
  %8 = alloca i32, align 4
  %9 = alloca i8, align 1
  call void @llvm.lifetime.start.p0(i64 4, ptr nonnull %5) #5
  store float 0.000000e+00, ptr %5, align 4, !tbaa !223
  call void @llvm.lifetime.start.p0(i64 4, ptr nonnull %6) #5
  store i32 0, ptr %6, align 4, !tbaa !280
  call void @llvm.lifetime.start.p0(i64 4, ptr nonnull %7) #5
  store i32 0, ptr %7, align 4, !tbaa !280
  call void @llvm.lifetime.start.p0(i64 4, ptr nonnull %8) #5
  store i32 0, ptr %8, align 4, !tbaa !280
  %10 = call i32 (ptr, ptr, ...) @__isoc99_sscanf(ptr noundef %3, ptr noundef nonnull @.str.47, ptr noundef nonnull %5) #5
  %11 = icmp eq i32 %10, 1
  br i1 %11, label %12, label %15

12:                                               ; preds = %4
  %13 = load float, ptr %5, align 4, !tbaa !223
  %14 = getelementptr inbounds nuw i8, ptr %2, i64 8
  store float %13, ptr %14, align 4, !tbaa !338
  br label %131

15:                                               ; preds = %4
  %16 = call i32 (ptr, ptr, ...) @__isoc99_sscanf(ptr noundef %3, ptr noundef nonnull @.str.48, ptr noundef nonnull %6, ptr noundef nonnull %7) #5
  %17 = icmp eq i32 %16, 1
  br i1 %17, label %18, label %131

18:                                               ; preds = %15
  %19 = load i32, ptr %6, align 4, !tbaa !280
  %20 = icmp slt i32 %19, 0
  br i1 %20, label %131, label %21

21:                                               ; preds = %18
  %22 = getelementptr inbounds nuw i8, ptr %2, i64 12
  %23 = load i16, ptr %22, align 4, !tbaa !335
  %24 = sext i16 %23 to i32
  %.not = icmp slt i32 %19, %24
  br i1 %.not, label %25, label %131

25:                                               ; preds = %21
  %26 = load i32, ptr %7, align 4, !tbaa !280
  %27 = sext i32 %26 to i64
  %28 = getelementptr inbounds i8, ptr %3, i64 %27
  %29 = call noundef ptr @_Z14ImStrSkipBlankPKc(ptr noundef %28)
  call void @llvm.lifetime.start.p0(i64 1, ptr nonnull %9) #5
  store i8 0, ptr %9, align 1, !tbaa !307
  %30 = getelementptr inbounds nuw i8, ptr %2, i64 20
  %31 = load i32, ptr %6, align 4, !tbaa !280
  %32 = sext i32 %31 to i64
  %33 = getelementptr inbounds %struct.ImGuiTableColumnSettings, ptr %30, i64 %32
  %34 = trunc i32 %31 to i16
  %35 = getelementptr inbounds nuw i8, ptr %33, i64 8
  store i16 %34, ptr %35, align 4, !tbaa !345
  %36 = call i32 (ptr, ptr, ...) @__isoc99_sscanf(ptr noundef %29, ptr noundef nonnull @.str.49, ptr noundef nonnull %8, ptr noundef nonnull %7) #5
  %37 = icmp eq i32 %36, 1
  br i1 %37, label %38, label %45

38:                                               ; preds = %25
  %39 = load i32, ptr %7, align 4, !tbaa !280
  %40 = sext i32 %39 to i64
  %41 = getelementptr inbounds i8, ptr %29, i64 %40
  %42 = call noundef ptr @_Z14ImStrSkipBlankPKc(ptr noundef %41)
  %43 = load i32, ptr %8, align 4, !tbaa !280
  %44 = getelementptr inbounds nuw i8, ptr %33, i64 4
  store i32 %43, ptr %44, align 4, !tbaa !591
  br label %45

45:                                               ; preds = %38, %25
  %.0 = phi ptr [ %42, %38 ], [ %29, %25 ]
  %46 = call i32 (ptr, ptr, ...) @__isoc99_sscanf(ptr noundef %.0, ptr noundef nonnull @.str.50, ptr noundef nonnull %8, ptr noundef nonnull %7) #5
  %47 = icmp eq i32 %46, 1
  br i1 %47, label %48, label %61

48:                                               ; preds = %45
  %49 = load i32, ptr %7, align 4, !tbaa !280
  %50 = sext i32 %49 to i64
  %51 = getelementptr inbounds i8, ptr %.0, i64 %50
  %52 = call noundef ptr @_Z14ImStrSkipBlankPKc(ptr noundef %51)
  %53 = load i32, ptr %8, align 4, !tbaa !280
  %54 = sitofp i32 %53 to float
  store float %54, ptr %33, align 4, !tbaa !347
  %55 = getelementptr inbounds nuw i8, ptr %33, i64 14
  %56 = load i8, ptr %55, align 2
  %57 = and i8 %56, -17
  store i8 %57, ptr %55, align 2
  %58 = getelementptr inbounds nuw i8, ptr %2, i64 4
  %59 = load i32, ptr %58, align 4, !tbaa !337
  %60 = or i32 %59, 1
  store i32 %60, ptr %58, align 4, !tbaa !337
  br label %61

61:                                               ; preds = %48, %45
  %.1 = phi ptr [ %52, %48 ], [ %.0, %45 ]
  %62 = call i32 (ptr, ptr, ...) @__isoc99_sscanf(ptr noundef %.1, ptr noundef nonnull @.str.51, ptr noundef nonnull %5, ptr noundef nonnull %7) #5
  %63 = icmp eq i32 %62, 1
  br i1 %63, label %64, label %76

64:                                               ; preds = %61
  %65 = load i32, ptr %7, align 4, !tbaa !280
  %66 = sext i32 %65 to i64
  %67 = getelementptr inbounds i8, ptr %.1, i64 %66
  %68 = call noundef ptr @_Z14ImStrSkipBlankPKc(ptr noundef %67)
  %69 = load float, ptr %5, align 4, !tbaa !223
  store float %69, ptr %33, align 4, !tbaa !347
  %70 = getelementptr inbounds nuw i8, ptr %33, i64 14
  %71 = load i8, ptr %70, align 2
  %72 = or i8 %71, 16
  store i8 %72, ptr %70, align 2
  %73 = getelementptr inbounds nuw i8, ptr %2, i64 4
  %74 = load i32, ptr %73, align 4, !tbaa !337
  %75 = or i32 %74, 1
  store i32 %75, ptr %73, align 4, !tbaa !337
  br label %76

76:                                               ; preds = %64, %61
  %.2 = phi ptr [ %68, %64 ], [ %.1, %61 ]
  %77 = call i32 (ptr, ptr, ...) @__isoc99_sscanf(ptr noundef %.2, ptr noundef nonnull @.str.52, ptr noundef nonnull %8, ptr noundef nonnull %7) #5
  %78 = icmp eq i32 %77, 1
  br i1 %78, label %79, label %95

79:                                               ; preds = %76
  %80 = load i32, ptr %7, align 4, !tbaa !280
  %81 = sext i32 %80 to i64
  %82 = getelementptr inbounds i8, ptr %.2, i64 %81
  %83 = call noundef ptr @_Z14ImStrSkipBlankPKc(ptr noundef %82)
  %84 = load i32, ptr %8, align 4, !tbaa !280
  %85 = trunc i32 %84 to i8
  %86 = getelementptr inbounds nuw i8, ptr %33, i64 14
  %87 = load i8, ptr %86, align 2
  %88 = shl i8 %85, 2
  %89 = and i8 %88, 12
  %90 = and i8 %87, -13
  %91 = or disjoint i8 %89, %90
  store i8 %91, ptr %86, align 2
  %92 = getelementptr inbounds nuw i8, ptr %2, i64 4
  %93 = load i32, ptr %92, align 4, !tbaa !337
  %94 = or i32 %93, 4
  store i32 %94, ptr %92, align 4, !tbaa !337
  br label %95

95:                                               ; preds = %79, %76
  %.3 = phi ptr [ %83, %79 ], [ %.2, %76 ]
  %96 = call i32 (ptr, ptr, ...) @__isoc99_sscanf(ptr noundef %.3, ptr noundef nonnull @.str.53, ptr noundef nonnull %8, ptr noundef nonnull %7) #5
  %97 = icmp eq i32 %96, 1
  br i1 %97, label %98, label %109

98:                                               ; preds = %95
  %99 = load i32, ptr %7, align 4, !tbaa !280
  %100 = sext i32 %99 to i64
  %101 = getelementptr inbounds i8, ptr %.3, i64 %100
  %102 = call noundef ptr @_Z14ImStrSkipBlankPKc(ptr noundef %101)
  %103 = load i32, ptr %8, align 4, !tbaa !280
  %104 = trunc i32 %103 to i16
  %105 = getelementptr inbounds nuw i8, ptr %33, i64 10
  store i16 %104, ptr %105, align 2, !tbaa !348
  %106 = getelementptr inbounds nuw i8, ptr %2, i64 4
  %107 = load i32, ptr %106, align 4, !tbaa !337
  %108 = or i32 %107, 2
  store i32 %108, ptr %106, align 4, !tbaa !337
  br label %109

109:                                              ; preds = %98, %95
  %.4 = phi ptr [ %102, %98 ], [ %.3, %95 ]
  %110 = call i32 (ptr, ptr, ...) @__isoc99_sscanf(ptr noundef %.4, ptr noundef nonnull @.str.54, ptr noundef nonnull %8, ptr noundef nonnull %9, ptr noundef nonnull %7) #5
  %111 = icmp eq i32 %110, 2
  br i1 %111, label %112, label %130

112:                                              ; preds = %109
  %113 = load i32, ptr %7, align 4, !tbaa !280
  %114 = sext i32 %113 to i64
  %115 = getelementptr inbounds i8, ptr %.4, i64 %114
  %116 = call noundef ptr @_Z14ImStrSkipBlankPKc(ptr noundef %115)
  %117 = load i32, ptr %8, align 4, !tbaa !280
  %118 = trunc i32 %117 to i16
  %119 = getelementptr inbounds nuw i8, ptr %33, i64 12
  store i16 %118, ptr %119, align 4, !tbaa !349
  %120 = load i8, ptr %9, align 1, !tbaa !307
  %121 = icmp eq i8 %120, 94
  %122 = select i1 %121, i8 2, i8 1
  %123 = getelementptr inbounds nuw i8, ptr %33, i64 14
  %124 = load i8, ptr %123, align 2
  %125 = and i8 %124, -4
  %126 = or disjoint i8 %125, %122
  store i8 %126, ptr %123, align 2
  %127 = getelementptr inbounds nuw i8, ptr %2, i64 4
  %128 = load i32, ptr %127, align 4, !tbaa !337
  %129 = or i32 %128, 8
  store i32 %129, ptr %127, align 4, !tbaa !337
  br label %130

130:                                              ; preds = %112, %109
  call void @llvm.lifetime.end.p0(i64 1, ptr nonnull %9) #5
  br label %131

131:                                              ; preds = %15, %130, %18, %21, %12
  call void @llvm.lifetime.end.p0(i64 4, ptr nonnull %8) #5
  call void @llvm.lifetime.end.p0(i64 4, ptr nonnull %7) #5
  call void @llvm.lifetime.end.p0(i64 4, ptr nonnull %6) #5
  call void @llvm.lifetime.end.p0(i64 4, ptr nonnull %5) #5
  ret void
}